; Function Attrs: nounwind uwtable
define zeroext i8 @l_Std_Tactic_BVDecide_LRAT_Internal_DefaultFormula_ratHintsExhaustive(ptr readnone captures(none) %0, ptr noundef readonly captures(none) %1, ptr noundef %2, ptr noundef %3) local_unnamed_addr #1 {
  %5 = getelementptr inbounds nuw i8, ptr %1, i64 8
  %6 = load ptr, ptr %5, align 8, !tbaa !9
  %7 = tail call ptr @l_Std_Tactic_BVDecide_LRAT_Internal_DefaultFormula_getRatClauseIndices(ptr poison, ptr noundef %6, ptr noundef %2)
  %8 = getelementptr i8, ptr %3, i64 8
  %.val = load i64, ptr %8, align 8, !tbaa !12
  %9 = tail call ptr @l_Array_mapMUnsafe_map___at_Std_Tactic_BVDecide_LRAT_Internal_DefaultFormula_ratHintsExhaustive___spec__1(i64 noundef %.val, i64 noundef 0, ptr noundef %3)
  %10 = load ptr, ptr @l_Std_Tactic_BVDecide_LRAT_Internal_DefaultFormula_ratHintsExhaustive___closed__1, align 8, !tbaa !9
  %11 = tail call zeroext i8 @l_Array_instDecidableEq___rarg(ptr noundef %10, ptr noundef %7, ptr noundef %9) #5
  %12 = ptrtoint ptr %9 to i64
  %13 = and i64 %12, 1
  %.not = icmp eq i64 %13, 0
  br i1 %.not, label %14, label %lean_dec.exit13

14:                                               ; preds = %4
  %15 = load i32, ptr %9, align 4, !tbaa !4
  %16 = icmp sgt i32 %15, 1
  br i1 %16, label %17, label %19, !prof !11

17:                                               ; preds = %14
  %18 = add nsw i32 %15, -1
  store i32 %18, ptr %9, align 4, !tbaa !4
  br label %lean_dec.exit13

19:                                               ; preds = %14
  %.not.i = icmp eq i32 %15, 0
  br i1 %.not.i, label %lean_dec.exit13, label %20

20:                                               ; preds = %19
  tail call void @lean_dec_ref_cold(ptr noundef nonnull %9) #5
  br label %lean_dec.exit13

lean_dec.exit13:                                  ; preds = %20, %19, %17, %4
  %21 = ptrtoint ptr %7 to i64
  %22 = and i64 %21, 1
  %.not16 = icmp eq i64 %22, 0
  br i1 %.not16, label %23, label %lean_dec.exit

23:                                               ; preds = %lean_dec.exit13
  %24 = load i32, ptr %7, align 4, !tbaa !4
  %25 = icmp sgt i32 %24, 1
  br i1 %25, label %26, label %28, !prof !11

26:                                               ; preds = %23
  %27 = add nsw i32 %24, -1
  store i32 %27, ptr %7, align 4, !tbaa !4
  br label %lean_dec.exit

28:                                               ; preds = %23
  %.not.i14 = icmp eq i32 %24, 0
  br i1 %.not.i14, label %lean_dec.exit, label %29

29:                                               ; preds = %28
  tail call void @lean_dec_ref_cold(ptr noundef nonnull %7) #5
  br label %lean_dec.exit

lean_dec.exit:                                    ; preds = %29, %28, %26, %lean_dec.exit13
  ret i8 %11
}